Certificate:
    Data:
        Version: 3 (0x2)
        Serial Number:
            a8:42:a0:00:af:8d:bf:75
        Signature Algorithm: sha1WithRSAEncryption
        Issuer: C=NZ, ST=Test State or Province, O=Organization Name, OU=Organizational Unit Name, CN=Test CA
        Validity
            Not Before: Aug  9 04:19:32 2010 GMT
            Not After : Aug  9 04:19:32 2011 GMT
        Subject: C=NZ, ST=Test State or Province, O=Organization Name, OU=Organizational Unit Name, CN=Test Client
        Subject Public Key Info:
            Public Key Algorithm: rsaEncryption
            RSA Public Key: (1024 bit)
                Modulus (1024 bit):
                    00:a3:98:14:71:00:ed:73:83:7e:4e:8b:ef:b1:c4:
                    f2:01:62:28:0d:5e:3f:a8:62:65:20:91:21:36:d5:
                    4c:a6:92:65:12:99:94:ff:45:09:cc:7c:14:18:d2:
                    60:0f:2d:87:d4:70:94:48:72:dc:dc:88:0d:3a:da:
                    ff:5d:24:36:67:4c:5f:8a:02:bc:44:e9:88:51:b4:
                    10:2c:fe:42:33:b1:49:7c:88:18:9c:ce:33:bf:b1:
                    61:67:5b:3e:9b:61:71:18:70:bc:10:f5:c0:d5:ab:
                    46:45:c8:80:f9:eb:29:22:1e:92:44:2a:53:21:2c:
                    00:b8:52:3a:4e:11:df:8a:73
                Exponent: 65537 (0x10001)
        X509v3 extensions:
            Netscape Cert Type: 
                SSL Client
            X509v3 Subject Alternative Name: 
                DNS:www.example.com, DNS:www2.example.com
    Signature Algorithm: sha1WithRSAEncryption
        0c:a6:38:54:3c:fd:4d:ab:82:4f:e1:e7:04:2d:89:79:5f:6f:
        f4:fb:fd:e3:f0:c3:3b:04:90:cf:1d:22:d8:31:80:aa:f2:9f:
        33:07:1c:96:4f:6e:3a:08:aa:ba:18:b4:5f:c7:59:97:2b:25:
        cc:93:5d:b3:53:6f:bd:72:5f:48:31:b3:2e:f8:2b:d5:2a:36:
        75:8e:30:a5:46:fb:6c:d8:30:f4:84:ce:5e:fc:c8:2d:57:39:
        a7:7b:68:eb:49:dd:40:24:9d:b2:ca:f0:26:a1:3b:fd:03:c9:
        de:4c:3b:dd:7e:9c:72:1a:03:8d:d3:c2:0b:5c:33:47:7f:87:
        e0:d0
-----BEGIN CERTIFICATE-----
MIICxDCCAi2gAwIBAgIJAKhCoACvjb91MA0GCSqGSIb3DQEBBQUAMH8xCzAJBgNV
BAYTAk5aMR8wHQYDVQQIExZUZXN0IFN0YXRlIG9yIFByb3ZpbmNlMRowGAYDVQQK
ExFPcmdhbml6YXRpb24gTmFtZTEhMB8GA1UECxMYT3JnYW5pemF0aW9uYWwgVW5p
dCBOYW1lMRAwDgYDVQQDEwdUZXN0IENBMB4XDTEwMDgwOTA0MTkzMloXDTExMDgw
OTA0MTkzMlowgYMxCzAJBgNVBAYTAk5aMR8wHQYDVQQIExZUZXN0IFN0YXRlIG9y
IFByb3ZpbmNlMRowGAYDVQQKExFPcmdhbml6YXRpb24gTmFtZTEhMB8GA1UECxMY
T3JnYW5pemF0aW9uYWwgVW5pdCBOYW1lMRQwEgYDVQQDEwtUZXN0IENsaWVudDCB
nzANBgkqhkiG9w0BAQEFAAOBjQAwgYkCgYEAo5gUcQDtc4N+TovvscTyAWIoDV4/
qGJlIJEhNtVMppJlEpmU/0UJzHwUGNJgDy2H1HCUSHLc3IgNOtr/XSQ2Z0xfigK8
ROmIUbQQLP5CM7FJfIgYnM4zv7FhZ1s+m2FxGHC8EPXA1atGRciA+espIh6SRCpT
ISwAuFI6ThHfinMCAwEAAaNDMEEwEQYJYIZIAYb4QgEBBAQDAgeAMCwGA1UdEQQl
MCOCD3d3dy5leGFtcGxlLmNvbYIQd3d3Mi5leGFtcGxlLmNvbTANBgkqhkiG9w0B
AQUFAAOBgQAMpjhUPP1Nq4JP4ecELYl5X2/0+/3j8MM7BJDPHSLYMYCq8p8zBxyW
T246CKq6GLRfx1mXKyXMk12zU2+9cl9IMbMu+CvVKjZ1jjClRvts2DD0hM5e/Mgt
Vzmne2jrSd1AJJ2yyvAmoTv9A8neTDvdfpxyGgON08ILXDNHf4fg0A==
-----END CERTIFICATE-----
