Certificate:
    Data:
        Version: 3 (0x2)
        Serial Number:
            a8:42:a0:00:af:8d:bf:71
        Signature Algorithm: sha1WithRSAEncryption
        Issuer: C=NZ, ST=Test State or Province, O=Organization Name, OU=Organizational Unit Name, CN=Test CA
        Validity
            Not Before: Aug  9 00:50:28 2010 GMT
            Not After : Aug  9 00:50:28 2011 GMT
        Subject: C=NZ, ST=Test State or Province, O=Organization Name, OU=Organizational Unit Name, CN=Test CA
        Subject Public Key Info:
            Public Key Algorithm: rsaEncryption
            RSA Public Key: (1024 bit)
                Modulus (1024 bit):
                    00:b3:c5:de:22:cd:fe:8b:8d:2e:40:91:ff:96:d8:
                    a6:bf:3e:30:e5:d8:7a:17:e4:07:93:48:f3:43:8e:
                    bb:09:f0:e7:e2:79:d2:d2:91:ae:67:cf:ad:5f:35:
                    cf:8a:cc:59:ba:ef:b3:d5:bf:6f:c8:f8:6f:e7:4c:
                    4e:cf:9c:59:1a:22:c9:56:9e:fd:26:fa:f5:24:91:
                    ed:83:13:f0:06:f5:10:f6:63:68:2f:72:b9:10:6a:
                    a7:d5:32:df:a0:d9:48:89:30:38:cd:4b:b3:c8:ef:
                    ef:63:60:02:09:5d:aa:3e:ed:a1:47:45:42:fd:d8:
                    d0:20:ea:e2:11:53:ad:21:d3
                Exponent: 65537 (0x10001)
        X509v3 extensions:
            X509v3 Subject Key Identifier: 
                31:B3:31:C5:95:FD:0B:BA:DB:B0:27:31:EB:48:10:44:68:8B:C1:36
            X509v3 Authority Key Identifier: 
                keyid:31:B3:31:C5:95:FD:0B:BA:DB:B0:27:31:EB:48:10:44:68:8B:C1:36
                DirName:/C=NZ/ST=Test State or Province/O=Organization Name/OU=Organizational Unit Name/CN=Test CA
                serial:A8:42:A0:00:AF:8D:BF:71

            X509v3 Basic Constraints: critical
                CA:TRUE
    Signature Algorithm: sha1WithRSAEncryption
        8e:bd:38:73:6c:6c:bb:0d:d4:c4:86:c3:1a:40:60:34:10:7a:
        77:ba:0a:d4:47:31:47:22:3e:ef:70:5d:54:b9:6a:d8:99:be:
        74:5f:2e:39:a2:58:41:b0:fd:4f:2b:ce:04:fa:f9:bb:0b:74:
        b3:20:d2:db:8e:3f:10:49:bb:6d:73:25:35:2e:6a:f3:b5:06:
        5b:52:81:e7:5e:73:9c:ef:2b:9a:55:70:94:5d:93:89:bf:0d:
        70:93:93:fb:57:36:89:0a:df:33:9e:a6:0c:ac:b6:64:8a:fe:
        2b:20:27:64:f8:fd:ff:e4:7d:3c:0a:c3:e0:f9:89:0d:df:d2:
        c7:5c
-----BEGIN CERTIFICATE-----
MIIDZjCCAs+gAwIBAgIJAKhCoACvjb9xMA0GCSqGSIb3DQEBBQUAMH8xCzAJBgNV
BAYTAk5aMR8wHQYDVQQIExZUZXN0IFN0YXRlIG9yIFByb3ZpbmNlMRowGAYDVQQK
ExFPcmdhbml6YXRpb24gTmFtZTEhMB8GA1UECxMYT3JnYW5pemF0aW9uYWwgVW5p
dCBOYW1lMRAwDgYDVQQDEwdUZXN0IENBMB4XDTEwMDgwOTAwNTAyOFoXDTExMDgw
OTAwNTAyOFowfzELMAkGA1UEBhMCTloxHzAdBgNVBAgTFlRlc3QgU3RhdGUgb3Ig
UHJvdmluY2UxGjAYBgNVBAoTEU9yZ2FuaXphdGlvbiBOYW1lMSEwHwYDVQQLExhP
cmdhbml6YXRpb25hbCBVbml0IE5hbWUxEDAOBgNVBAMTB1Rlc3QgQ0EwgZ8wDQYJ
KoZIhvcNAQEBBQADgY0AMIGJAoGBALPF3iLN/ouNLkCR/5bYpr8+MOXYehfkB5NI
80OOuwnw5+J50tKRrmfPrV81z4rMWbrvs9W/b8j4b+dMTs+cWRoiyVae/Sb69SSR
7YMT8Ab1EPZjaC9yuRBqp9Uy36DZSIkwOM1Ls8jv72NgAgldqj7toUdFQv3Y0CDq
4hFTrSHTAgMBAAGjgekwgeYwHQYDVR0OBBYEFDGzMcWV/Qu627AnMetIEERoi8E2
MIGzBgNVHSMEgaswgaiAFDGzMcWV/Qu627AnMetIEERoi8E2oYGEpIGBMH8xCzAJ
BgNVBAYTAk5aMR8wHQYDVQQIExZUZXN0IFN0YXRlIG9yIFByb3ZpbmNlMRowGAYD
VQQKExFPcmdhbml6YXRpb24gTmFtZTEhMB8GA1UECxMYT3JnYW5pemF0aW9uYWwg
VW5pdCBOYW1lMRAwDgYDVQQDEwdUZXN0IENBggkAqEKgAK+Nv3EwDwYDVR0TAQH/
BAUwAwEB/zANBgkqhkiG9w0BAQUFAAOBgQCOvThzbGy7DdTEhsMaQGA0EHp3ugrU
RzFHIj7vcF1UuWrYmb50Xy45olhBsP1PK84E+vm7C3SzINLbjj8QSbttcyU1Lmrz
tQZbUoHnXnOc7yuaVXCUXZOJvw1wk5P7VzaJCt8znqYMrLZkiv4rICdk+P3/5H08
CsPg+YkN39LHXA==
-----END CERTIFICATE-----
